target datalayout = "e-m:e-p270:32:32-p271:32:32-p272:64:64-i64:64-i128:128-f80:128-n8:16:32:64-S128"
target triple = "x86_64-pc-linux-gnu"

%"class.Assimp::FBX::Element" = type { ptr, %"class.std::vector", ptr }
%"class.std::vector" = type { %"struct.std::_Vector_base" }
%"struct.std::_Vector_base" = type { %"struct.std::_Vector_base<const Assimp::FBX::Token *, std::allocator<const Assimp::FBX::Token *>>::_Vector_impl" }
%"struct.std::_Vector_base<const Assimp::FBX::Token *, std::allocator<const Assimp::FBX::Token *>>::_Vector_impl" = type { %"struct.std::_Vector_base<const Assimp::FBX::Token *, std::allocator<const Assimp::FBX::Token *>>::_Vector_impl_data" }
%"struct.std::_Vector_base<const Assimp::FBX::Token *, std::allocator<const Assimp::FBX::Token *>>::_Vector_impl_data" = type { ptr, ptr, ptr }

@_ZTI17DeadlyImportError = linkonce_odr constant { ptr, ptr, ptr } { ptr getelementptr inbounds (ptr, ptr @_ZTVN10__cxxabiv120__si_class_type_infoE, i64 2), ptr @_ZTS17DeadlyImportError, ptr @_ZTI15DeadlyErrorBase }, comdat, align 8
@.str.1 = private unnamed_addr constant [9 x i8] c"FBX-DOM \00", align 1

; Function Attrs: mustprogress nounwind uwtable
define linkonce_odr hidden noundef nonnull align 8 dereferenceable(36) ptr @_ZNK6Assimp3FBX7Element8KeyTokenEv(ptr noundef nonnull align 8 dereferenceable(40) %0) #6 comdat align 2 {
  %2 = alloca ptr, align 8
  store ptr %0, ptr %2, align 8
  %3 = load ptr, ptr %2, align 8
  %4 = getelementptr inbounds nuw %"class.Assimp::FBX::Element", ptr %3, i32 0, i32 0
  %5 = load ptr, ptr %4, align 8
  ret ptr %5
}

; Function Attrs: mustprogress noreturn uwtable
define hidden void @_ZN6Assimp3FBX4Util8DOMErrorERKNSt7__cxx1112basic_stringIcSt11char_traitsIcESaIcEEEPKNS0_7ElementE(ptr noundef nonnull align 8 dereferenceable(32) %0, ptr noundef %1) #1 personality ptr @__gxx_personality_v0 {
  %3 = alloca ptr, align 8
  %4 = alloca ptr, align 8
  %5 = alloca ptr, align 8
  %6 = alloca i32, align 4
  store ptr %0, ptr %3, align 8
  store ptr %1, ptr %4, align 8
  %7 = load ptr, ptr %4, align 8
  %8 = icmp ne ptr %7, null
  br i1 %8, label %9, label %13

9:                                                ; preds = %2
  %10 = load ptr, ptr %3, align 8
  %11 = load ptr, ptr %4, align 8
  %12 = call noundef nonnull align 8 dereferenceable(36) ptr @_ZNK6Assimp3FBX7Element8KeyTokenEv(ptr noundef nonnull align 8 dereferenceable(40) %11)
  call void @_ZN6Assimp3FBX4Util8DOMErrorERKNSt7__cxx1112basic_stringIcSt11char_traitsIcESaIcEEERKNS0_5TokenE(ptr noundef nonnull align 8 dereferenceable(32) %10, ptr noundef nonnull align 8 dereferenceable(36) %12) #19
  unreachable

13:                                               ; preds = %2
  %14 = call ptr @__cxa_allocate_exception(i64 16) #18
  %15 = load ptr, ptr %3, align 8
  invoke void @_ZN17DeadlyImportErrorC2IJRA9_KcRKNSt7__cxx1112basic_stringIcSt11char_traitsIcESaIcEEEEEEDpOT_(ptr noundef nonnull align 8 dereferenceable(16) %14, ptr noundef nonnull align 1 dereferenceable(9) @.str.1, ptr noundef nonnull align 8 dereferenceable(32) %15)
          to label %16 unwind label %17

16:                                               ; preds = %13
  call void @__cxa_throw(ptr %14, ptr @_ZTI17DeadlyImportError, ptr @_ZNSt13runtime_errorD2Ev) #19
  unreachable

17:                                               ; preds = %13
  %18 = landingpad { ptr, i32 }
          cleanup
  %19 = extractvalue { ptr, i32 } %18, 0
  store ptr %19, ptr %5, align 8
  %20 = extractvalue { ptr, i32 } %18, 1
  store i32 %20, ptr %6, align 4
  call void @__cxa_free_exception(ptr %14) #18
  br label %21

21:                                               ; preds = %17
  %22 = load ptr, ptr %5, align 8
  %23 = load i32, ptr %6, align 4
  %24 = insertvalue { ptr, i32 } poison, ptr %22, 0
  %25 = insertvalue { ptr, i32 } %24, i32 %23, 1
  resume { ptr, i32 } %25
}