; Function Attrs: mustprogress noreturn uwtable
define hidden void @_ZN6Assimp3FBX4Util8DOMErrorERKNSt7__cxx1112basic_stringIcSt11char_traitsIcESaIcEEEPKNS0_7ElementE(ptr noundef nonnull align 8 dereferenceable(32) %0, ptr noundef readonly captures(address_is_null) %1) local_unnamed_addr #0 personality ptr @__gxx_personality_v0 {
  %.not = icmp eq ptr %1, null
  br i1 %.not, label %5, label %3

3:                                                ; preds = %2
  %4 = load ptr, ptr %1, align 8
  tail call void @_ZN6Assimp3FBX4Util8DOMErrorERKNSt7__cxx1112basic_stringIcSt11char_traitsIcESaIcEEERKNS0_5TokenE(ptr noundef nonnull align 8 dereferenceable(32) %0, ptr noundef nonnull align 8 dereferenceable(36) %4) #20
  unreachable

5:                                                ; preds = %2
  %6 = tail call ptr @__cxa_allocate_exception(i64 16) #19
  invoke void @_ZN17DeadlyImportErrorC2IJRA9_KcRKNSt7__cxx1112basic_stringIcSt11char_traitsIcESaIcEEEEEEDpOT_(ptr noundef nonnull align 8 dereferenceable(16) %6, ptr noundef nonnull align 1 dereferenceable(9) @.str.1, ptr noundef nonnull align 8 dereferenceable(32) %0)
          to label %7 unwind label %8

7:                                                ; preds = %5
  tail call void @__cxa_throw(ptr nonnull %6, ptr nonnull @_ZTI17DeadlyImportError, ptr nonnull @_ZNSt13runtime_errorD2Ev) #20
  unreachable

8:                                                ; preds = %5
  %9 = landingpad { ptr, i32 }
          cleanup
  tail call void @__cxa_free_exception(ptr nonnull %6) #19
  resume { ptr, i32 } %9
}